; Function Attrs: mustprogress nofree norecurse nosync nounwind memory(readwrite, inaccessiblemem: none) uwtable
define hidden void @_ZN7datalog15bitvector_table8add_factERK7svectorImjE(ptr nocapture noundef nonnull readonly align 8 dereferenceable(80) %this, ptr nocapture noundef nonnull readonly align 8 dereferenceable(8) %f) unnamed_addr #6 align 2 {
entry:
  %0 = load ptr, ptr %f, align 8
  %m_num_cols.i = getelementptr inbounds i8, ptr %this, i64 56
  %1 = load i32, ptr %m_num_cols.i, align 8
  %cmp5.not.i = icmp eq i32 %1, 0
  br i1 %cmp5.not.i, label %_ZNK7datalog15bitvector_table11fact2offsetEPKm.exit, label %for.body.lr.ph.i

for.body.lr.ph.i:                                 ; preds = %entry
  %m_shift.i = getelementptr inbounds i8, ptr %this, i64 64
  %2 = load ptr, ptr %m_shift.i, align 8
  %wide.trip.count.i = zext i32 %1 to i64
  br label %for.body.i

for.body.i:                                       ; preds = %for.body.i, %for.body.lr.ph.i
  %indvars.iv.i = phi i64 [ 0, %for.body.lr.ph.i ], [ %indvars.iv.next.i, %for.body.i ]
  %result.06.i = phi i32 [ 0, %for.body.lr.ph.i ], [ %add.i, %for.body.i ]
  %arrayidx.i = getelementptr inbounds i64, ptr %0, i64 %indvars.iv.i
  %3 = load i64, ptr %arrayidx.i, align 8
  %conv.i = trunc i64 %3 to i32
  %arrayidx.i.i = getelementptr inbounds i32, ptr %2, i64 %indvars.iv.i
  %4 = load i32, ptr %arrayidx.i.i, align 4
  %shl.i = shl i32 %conv.i, %4
  %add.i = add i32 %shl.i, %result.06.i
  %indvars.iv.next.i = add nuw nsw i64 %indvars.iv.i, 1
  %exitcond.not.i = icmp eq i64 %indvars.iv.next.i, %wide.trip.count.i
  br i1 %exitcond.not.i, label %_ZNK7datalog15bitvector_table11fact2offsetEPKm.exit, label %for.body.i, !llvm.loop !17

_ZNK7datalog15bitvector_table11fact2offsetEPKm.exit: ; preds = %for.body.i, %entry
  %result.0.lcssa.i = phi i32 [ 0, %entry ], [ %add.i, %for.body.i ]
  %rem.i.i = and i32 %result.0.lcssa.i, 31
  %shl.i.i = shl nuw i32 1, %rem.i.i
  %m_data.i.i = getelementptr inbounds i8, ptr %this, i64 48
  %5 = load ptr, ptr %m_data.i.i, align 8
  %div1.i.i = lshr i32 %result.0.lcssa.i, 5
  %idxprom.i.i = zext nneg i32 %div1.i.i to i64
  %arrayidx.i.i1 = getelementptr inbounds i32, ptr %5, i64 %idxprom.i.i
  %6 = load i32, ptr %arrayidx.i.i1, align 4
  %or.i = or i32 %6, %shl.i.i
  store i32 %or.i, ptr %arrayidx.i.i1, align 4
  ret void
}